target datalayout = "e-m:e-p270:32:32-p271:32:32-p272:64:64-i64:64-i128:128-f80:128-n8:16:32:64-S128"
target triple = "x86_64-unknown-linux-gnu"

@global_props.gp = internal global ptr null, align 8

; Function Attrs: nounwind sspstrong uwtable
define internal ptr @global_props() #0 {
entry:
  %0 = load ptr, ptr @global_props.gp, align 8
  %tobool = icmp ne ptr %0, null
  br i1 %tobool, label %if.end, label %if.then

if.then:                                          ; preds = %entry
  %call = call ptr @g_ptr_array_new()
  store ptr %call, ptr @global_props.gp, align 8
  br label %if.end

if.end:                                           ; preds = %if.then, %entry
  %1 = load ptr, ptr @global_props.gp, align 8
  ret ptr %1
}

; Function Attrs: nounwind sspstrong uwtable
define dso_local void @qdev_prop_register_global(ptr noundef %prop) #0 {
entry:
  %prop.addr = alloca ptr, align 8
  store ptr %prop, ptr %prop.addr, align 8
  %call = call ptr @global_props()
  %0 = load ptr, ptr %prop.addr, align 8
  call void @g_ptr_array_add(ptr noundef %call, ptr noundef %0)
  ret void
}