; Function Attrs: nounwind sspstrong uwtable
define dso_local void @qdev_prop_register_global(ptr noundef %prop) local_unnamed_addr #0 {
entry:
  %0 = load ptr, ptr @global_props.gp, align 8
  %tobool.not.i = icmp eq ptr %0, null
  br i1 %tobool.not.i, label %if.then.i, label %global_props.exit

if.then.i:                                        ; preds = %entry
  %call.i = tail call ptr @g_ptr_array_new() #9
  store ptr %call.i, ptr @global_props.gp, align 8
  br label %global_props.exit

global_props.exit:                                ; preds = %entry, %if.then.i
  %1 = phi ptr [ %call.i, %if.then.i ], [ %0, %entry ]
  tail call void @g_ptr_array_add(ptr noundef %1, ptr noundef %prop) #9
  ret void
}